target datalayout = "e-m:e-p270:32:32-p271:32:32-p272:64:64-i64:64-i128:128-f80:128-n8:16:32:64-S128"
target triple = "x86_64-pc-linux-gnu"

%struct.gz_state = type { %struct.gzFile_s, i32, i32, ptr, i32, i32, ptr, ptr, i32, i32, i64, i32, i32, i32, i32, i64, i32, i32, ptr, %struct.z_stream_s }
%struct.gzFile_s = type { i32, ptr, i64 }
%struct.z_stream_s = type { ptr, i32, i64, ptr, i32, i64, ptr, ptr, ptr, ptr, ptr, i32, i64, i64, i32 }

@.str.4 = private unnamed_addr constant [14 x i8] c"out of memory\00", align 1
@.str.6 = private unnamed_addr constant [6 x i8] c"1.2.8\00", align 1

; Function Attrs: nounwind uwtable
define internal i32 @gz_look(ptr noundef %0) #0 {
  %2 = alloca i32, align 4
  %3 = alloca ptr, align 8
  %4 = alloca ptr, align 8
  %5 = alloca i32, align 4
  store ptr %0, ptr %3, align 8, !tbaa !8
  call void @llvm.lifetime.start.p0(i64 8, ptr %4) #8
  %6 = load ptr, ptr %3, align 8, !tbaa !8
  %7 = getelementptr inbounds nuw %struct.gz_state, ptr %6, i32 0, i32 19
  store ptr %7, ptr %4, align 8, !tbaa !11
  %8 = load ptr, ptr %3, align 8, !tbaa !8
  %9 = getelementptr inbounds nuw %struct.gz_state, ptr %8, i32 0, i32 4
  %10 = load i32, ptr %9, align 8, !tbaa !29
  %11 = icmp eq i32 %10, 0
  br i1 %11, label %12, label %93

12:                                               ; preds = %1
  %13 = load ptr, ptr %3, align 8, !tbaa !8
  %14 = getelementptr inbounds nuw %struct.gz_state, ptr %13, i32 0, i32 5
  %15 = load i32, ptr %14, align 4, !tbaa !51
  %16 = zext i32 %15 to i64
  %17 = call noalias ptr @malloc(i64 noundef %16) #11
  %18 = load ptr, ptr %3, align 8, !tbaa !8
  %19 = getelementptr inbounds nuw %struct.gz_state, ptr %18, i32 0, i32 6
  store ptr %17, ptr %19, align 8, !tbaa !52
  %20 = load ptr, ptr %3, align 8, !tbaa !8
  %21 = getelementptr inbounds nuw %struct.gz_state, ptr %20, i32 0, i32 5
  %22 = load i32, ptr %21, align 4, !tbaa !51
  %23 = shl i32 %22, 1
  %24 = zext i32 %23 to i64
  %25 = call noalias ptr @malloc(i64 noundef %24) #11
  %26 = load ptr, ptr %3, align 8, !tbaa !8
  %27 = getelementptr inbounds nuw %struct.gz_state, ptr %26, i32 0, i32 7
  store ptr %25, ptr %27, align 8, !tbaa !38
  %28 = load ptr, ptr %3, align 8, !tbaa !8
  %29 = getelementptr inbounds nuw %struct.gz_state, ptr %28, i32 0, i32 6
  %30 = load ptr, ptr %29, align 8, !tbaa !52
  %31 = icmp eq ptr %30, null
  br i1 %31, label %37, label %32

32:                                               ; preds = %12
  %33 = load ptr, ptr %3, align 8, !tbaa !8
  %34 = getelementptr inbounds nuw %struct.gz_state, ptr %33, i32 0, i32 7
  %35 = load ptr, ptr %34, align 8, !tbaa !38
  %36 = icmp eq ptr %35, null
  br i1 %36, label %37, label %57

37:                                               ; preds = %32, %12
  %38 = load ptr, ptr %3, align 8, !tbaa !8
  %39 = getelementptr inbounds nuw %struct.gz_state, ptr %38, i32 0, i32 7
  %40 = load ptr, ptr %39, align 8, !tbaa !38
  %41 = icmp ne ptr %40, null
  br i1 %41, label %42, label %46

42:                                               ; preds = %37
  %43 = load ptr, ptr %3, align 8, !tbaa !8
  %44 = getelementptr inbounds nuw %struct.gz_state, ptr %43, i32 0, i32 7
  %45 = load ptr, ptr %44, align 8, !tbaa !38
  call void @free(ptr noundef %45) #8
  br label %46

46:                                               ; preds = %42, %37
  %47 = load ptr, ptr %3, align 8, !tbaa !8
  %48 = getelementptr inbounds nuw %struct.gz_state, ptr %47, i32 0, i32 6
  %49 = load ptr, ptr %48, align 8, !tbaa !52
  %50 = icmp ne ptr %49, null
  br i1 %50, label %51, label %55

51:                                               ; preds = %46
  %52 = load ptr, ptr %3, align 8, !tbaa !8
  %53 = getelementptr inbounds nuw %struct.gz_state, ptr %52, i32 0, i32 6
  %54 = load ptr, ptr %53, align 8, !tbaa !52
  call void @free(ptr noundef %54) #8
  br label %55

55:                                               ; preds = %51, %46
  %56 = load ptr, ptr %3, align 8, !tbaa !8
  call void @MOZ_Z_gz_error(ptr noundef %56, i32 noundef -4, ptr noundef @.str.4)
  store i32 -1, ptr %2, align 4
  store i32 1, ptr %5, align 4
  br label %187

57:                                               ; preds = %32
  %58 = load ptr, ptr %3, align 8, !tbaa !8
  %59 = getelementptr inbounds nuw %struct.gz_state, ptr %58, i32 0, i32 5
  %60 = load i32, ptr %59, align 4, !tbaa !51
  %61 = load ptr, ptr %3, align 8, !tbaa !8
  %62 = getelementptr inbounds nuw %struct.gz_state, ptr %61, i32 0, i32 4
  store i32 %60, ptr %62, align 8, !tbaa !29
  %63 = load ptr, ptr %3, align 8, !tbaa !8
  %64 = getelementptr inbounds nuw %struct.gz_state, ptr %63, i32 0, i32 19
  %65 = getelementptr inbounds nuw %struct.z_stream_s, ptr %64, i32 0, i32 8
  store ptr null, ptr %65, align 8, !tbaa !53
  %66 = load ptr, ptr %3, align 8, !tbaa !8
  %67 = getelementptr inbounds nuw %struct.gz_state, ptr %66, i32 0, i32 19
  %68 = getelementptr inbounds nuw %struct.z_stream_s, ptr %67, i32 0, i32 9
  store ptr null, ptr %68, align 8, !tbaa !54
  %69 = load ptr, ptr %3, align 8, !tbaa !8
  %70 = getelementptr inbounds nuw %struct.gz_state, ptr %69, i32 0, i32 19
  %71 = getelementptr inbounds nuw %struct.z_stream_s, ptr %70, i32 0, i32 10
  store ptr null, ptr %71, align 8, !tbaa !55
  %72 = load ptr, ptr %3, align 8, !tbaa !8
  %73 = getelementptr inbounds nuw %struct.gz_state, ptr %72, i32 0, i32 19
  %74 = getelementptr inbounds nuw %struct.z_stream_s, ptr %73, i32 0, i32 1
  store i32 0, ptr %74, align 8, !tbaa !36
  %75 = load ptr, ptr %3, align 8, !tbaa !8
  %76 = getelementptr inbounds nuw %struct.gz_state, ptr %75, i32 0, i32 19
  %77 = getelementptr inbounds nuw %struct.z_stream_s, ptr %76, i32 0, i32 0
  store ptr null, ptr %77, align 8, !tbaa !56
  %78 = load ptr, ptr %3, align 8, !tbaa !8
  %79 = getelementptr inbounds nuw %struct.gz_state, ptr %78, i32 0, i32 19
  %80 = call i32 @MOZ_Z_inflateInit2_(ptr noundef %79, i32 noundef 31, ptr noundef @.str.6, i32 noundef 120)
  %81 = icmp ne i32 %80, 0
  br i1 %81, label %82, label %92

82:                                               ; preds = %57
  %83 = load ptr, ptr %3, align 8, !tbaa !8
  %84 = getelementptr inbounds nuw %struct.gz_state, ptr %83, i32 0, i32 7
  %85 = load ptr, ptr %84, align 8, !tbaa !38
  call void @free(ptr noundef %85) #8
  %86 = load ptr, ptr %3, align 8, !tbaa !8
  %87 = getelementptr inbounds nuw %struct.gz_state, ptr %86, i32 0, i32 6
  %88 = load ptr, ptr %87, align 8, !tbaa !52
  call void @free(ptr noundef %88) #8
  %89 = load ptr, ptr %3, align 8, !tbaa !8
  %90 = getelementptr inbounds nuw %struct.gz_state, ptr %89, i32 0, i32 4
  store i32 0, ptr %90, align 8, !tbaa !29
  %91 = load ptr, ptr %3, align 8, !tbaa !8
  call void @MOZ_Z_gz_error(ptr noundef %91, i32 noundef -4, ptr noundef @.str.4)
  store i32 -1, ptr %2, align 4
  store i32 1, ptr %5, align 4
  br label %187

92:                                               ; preds = %57
  br label %93

93:                                               ; preds = %92, %1
  %94 = load ptr, ptr %4, align 8, !tbaa !11
  %95 = getelementptr inbounds nuw %struct.z_stream_s, ptr %94, i32 0, i32 1
  %96 = load i32, ptr %95, align 8, !tbaa !26
  %97 = icmp ult i32 %96, 2
  br i1 %97, label %98, label %110

98:                                               ; preds = %93
  %99 = load ptr, ptr %3, align 8, !tbaa !8
  %100 = call i32 @gz_avail(ptr noundef %99)
  %101 = icmp eq i32 %100, -1
  br i1 %101, label %102, label %103

102:                                              ; preds = %98
  store i32 -1, ptr %2, align 4
  store i32 1, ptr %5, align 4
  br label %187

103:                                              ; preds = %98
  %104 = load ptr, ptr %4, align 8, !tbaa !11
  %105 = getelementptr inbounds nuw %struct.z_stream_s, ptr %104, i32 0, i32 1
  %106 = load i32, ptr %105, align 8, !tbaa !26
  %107 = icmp eq i32 %106, 0
  br i1 %107, label %108, label %109

108:                                              ; preds = %103
  store i32 0, ptr %2, align 4
  store i32 1, ptr %5, align 4
  br label %187

109:                                              ; preds = %103
  br label %110

110:                                              ; preds = %109, %93
  %111 = load ptr, ptr %4, align 8, !tbaa !11
  %112 = getelementptr inbounds nuw %struct.z_stream_s, ptr %111, i32 0, i32 1
  %113 = load i32, ptr %112, align 8, !tbaa !26
  %114 = icmp ugt i32 %113, 1
  br i1 %114, label %115, label %138

115:                                              ; preds = %110
  %116 = load ptr, ptr %4, align 8, !tbaa !11
  %117 = getelementptr inbounds nuw %struct.z_stream_s, ptr %116, i32 0, i32 0
  %118 = load ptr, ptr %117, align 8, !tbaa !57
  %119 = getelementptr inbounds i8, ptr %118, i64 0
  %120 = load i8, ptr %119, align 1, !tbaa !47
  %121 = zext i8 %120 to i32
  %122 = icmp eq i32 %121, 31
  br i1 %122, label %123, label %138

123:                                              ; preds = %115
  %124 = load ptr, ptr %4, align 8, !tbaa !11
  %125 = getelementptr inbounds nuw %struct.z_stream_s, ptr %124, i32 0, i32 0
  %126 = load ptr, ptr %125, align 8, !tbaa !57
  %127 = getelementptr inbounds i8, ptr %126, i64 1
  %128 = load i8, ptr %127, align 1, !tbaa !47
  %129 = zext i8 %128 to i32
  %130 = icmp eq i32 %129, 139
  br i1 %130, label %131, label %138

131:                                              ; preds = %123
  %132 = load ptr, ptr %4, align 8, !tbaa !11
  %133 = call i32 @MOZ_Z_inflateReset(ptr noundef %132)
  %134 = load ptr, ptr %3, align 8, !tbaa !8
  %135 = getelementptr inbounds nuw %struct.gz_state, ptr %134, i32 0, i32 9
  store i32 2, ptr %135, align 4, !tbaa !28
  %136 = load ptr, ptr %3, align 8, !tbaa !8
  %137 = getelementptr inbounds nuw %struct.gz_state, ptr %136, i32 0, i32 8
  store i32 0, ptr %137, align 8, !tbaa !50
  store i32 0, ptr %2, align 4
  store i32 1, ptr %5, align 4
  br label %187

138:                                              ; preds = %123, %115, %110
  %139 = load ptr, ptr %3, align 8, !tbaa !8
  %140 = getelementptr inbounds nuw %struct.gz_state, ptr %139, i32 0, i32 8
  %141 = load i32, ptr %140, align 8, !tbaa !50
  %142 = icmp eq i32 %141, 0
  br i1 %142, label %143, label %151

143:                                              ; preds = %138
  %144 = load ptr, ptr %4, align 8, !tbaa !11
  %145 = getelementptr inbounds nuw %struct.z_stream_s, ptr %144, i32 0, i32 1
  store i32 0, ptr %145, align 8, !tbaa !26
  %146 = load ptr, ptr %3, align 8, !tbaa !8
  %147 = getelementptr inbounds nuw %struct.gz_state, ptr %146, i32 0, i32 11
  store i32 1, ptr %147, align 8, !tbaa !25
  %148 = load ptr, ptr %3, align 8, !tbaa !8
  %149 = getelementptr inbounds nuw %struct.gz_state, ptr %148, i32 0, i32 0
  %150 = getelementptr inbounds nuw %struct.gzFile_s, ptr %149, i32 0, i32 0
  store i32 0, ptr %150, align 8, !tbaa !23
  store i32 0, ptr %2, align 4
  store i32 1, ptr %5, align 4
  br label %187

151:                                              ; preds = %138
  %152 = load ptr, ptr %3, align 8, !tbaa !8
  %153 = getelementptr inbounds nuw %struct.gz_state, ptr %152, i32 0, i32 7
  %154 = load ptr, ptr %153, align 8, !tbaa !38
  %155 = load ptr, ptr %3, align 8, !tbaa !8
  %156 = getelementptr inbounds nuw %struct.gz_state, ptr %155, i32 0, i32 0
  %157 = getelementptr inbounds nuw %struct.gzFile_s, ptr %156, i32 0, i32 1
  store ptr %154, ptr %157, align 8, !tbaa !24
  %158 = load ptr, ptr %4, align 8, !tbaa !11
  %159 = getelementptr inbounds nuw %struct.z_stream_s, ptr %158, i32 0, i32 1
  %160 = load i32, ptr %159, align 8, !tbaa !26
  %161 = icmp ne i32 %160, 0
  br i1 %161, label %162, label %182

162:                                              ; preds = %151
  %163 = load ptr, ptr %3, align 8, !tbaa !8
  %164 = getelementptr inbounds nuw %struct.gz_state, ptr %163, i32 0, i32 0
  %165 = getelementptr inbounds nuw %struct.gzFile_s, ptr %164, i32 0, i32 1
  %166 = load ptr, ptr %165, align 8, !tbaa !24
  %167 = load ptr, ptr %4, align 8, !tbaa !11
  %168 = getelementptr inbounds nuw %struct.z_stream_s, ptr %167, i32 0, i32 0
  %169 = load ptr, ptr %168, align 8, !tbaa !57
  %170 = load ptr, ptr %4, align 8, !tbaa !11
  %171 = getelementptr inbounds nuw %struct.z_stream_s, ptr %170, i32 0, i32 1
  %172 = load i32, ptr %171, align 8, !tbaa !26
  %173 = zext i32 %172 to i64
  call void @llvm.memcpy.p0.p0.i64(ptr align 1 %166, ptr align 1 %169, i64 %173, i1 false)
  %174 = load ptr, ptr %4, align 8, !tbaa !11
  %175 = getelementptr inbounds nuw %struct.z_stream_s, ptr %174, i32 0, i32 1
  %176 = load i32, ptr %175, align 8, !tbaa !26
  %177 = load ptr, ptr %3, align 8, !tbaa !8
  %178 = getelementptr inbounds nuw %struct.gz_state, ptr %177, i32 0, i32 0
  %179 = getelementptr inbounds nuw %struct.gzFile_s, ptr %178, i32 0, i32 0
  store i32 %176, ptr %179, align 8, !tbaa !23
  %180 = load ptr, ptr %4, align 8, !tbaa !11
  %181 = getelementptr inbounds nuw %struct.z_stream_s, ptr %180, i32 0, i32 1
  store i32 0, ptr %181, align 8, !tbaa !26
  br label %182

182:                                              ; preds = %162, %151
  %183 = load ptr, ptr %3, align 8, !tbaa !8
  %184 = getelementptr inbounds nuw %struct.gz_state, ptr %183, i32 0, i32 9
  store i32 1, ptr %184, align 4, !tbaa !28
  %185 = load ptr, ptr %3, align 8, !tbaa !8
  %186 = getelementptr inbounds nuw %struct.gz_state, ptr %185, i32 0, i32 8
  store i32 1, ptr %186, align 8, !tbaa !50
  store i32 0, ptr %2, align 4
  store i32 1, ptr %5, align 4
  br label %187

187:                                              ; preds = %182, %143, %131, %108, %102, %82, %55
  call void @llvm.lifetime.end.p0(i64 8, ptr %4) #8
  %188 = load i32, ptr %2, align 4
  ret i32 %188
}