; Function Attrs: nounwind uwtable
define internal fastcc range(i32 -1, 1) i32 @gz_look(ptr noundef nonnull %0) unnamed_addr #0 {
  %2 = getelementptr inbounds nuw i8, ptr %0, i64 120
  %3 = getelementptr inbounds nuw i8, ptr %0, i64 40
  %4 = load i32, ptr %3, align 8, !tbaa !27
  %5 = icmp eq i32 %4, 0
  br i1 %5, label %6, label %30

6:                                                ; preds = %1
  %7 = getelementptr inbounds nuw i8, ptr %0, i64 44
  %8 = load i32, ptr %7, align 4, !tbaa !42
  %9 = zext i32 %8 to i64
  %10 = tail call noalias ptr @malloc(i64 noundef %9) #15
  %11 = getelementptr inbounds nuw i8, ptr %0, i64 48
  store ptr %10, ptr %11, align 8, !tbaa !43
  %12 = shl i32 %8, 1
  %13 = zext i32 %12 to i64
  %14 = tail call noalias ptr @malloc(i64 noundef %13) #15
  %15 = getelementptr inbounds nuw i8, ptr %0, i64 56
  store ptr %14, ptr %15, align 8, !tbaa !34
  %16 = icmp eq ptr %10, null
  %17 = icmp eq ptr %14, null
  %or.cond = or i1 %16, %17
  br i1 %or.cond, label %18, label %23

18:                                               ; preds = %6
  br i1 %17, label %20, label %19

19:                                               ; preds = %18
  tail call void @free(ptr noundef nonnull %14) #12
  br label %20

20:                                               ; preds = %19, %18
  br i1 %16, label %22, label %21

21:                                               ; preds = %20
  tail call void @free(ptr noundef nonnull %10) #12
  br label %22

22:                                               ; preds = %21, %20
  tail call void @MOZ_Z_gz_error(ptr noundef nonnull %0, i32 noundef -4, ptr noundef nonnull @.str.4) #12
  br label %66

23:                                               ; preds = %6
  store i32 %8, ptr %3, align 8, !tbaa !27
  %24 = getelementptr inbounds nuw i8, ptr %0, i64 184
  %25 = getelementptr inbounds nuw i8, ptr %0, i64 128
  store i32 0, ptr %25, align 8, !tbaa !21
  store ptr null, ptr %2, align 8, !tbaa !44
  tail call void @llvm.memset.p0.i64(ptr noundef nonnull align 8 dereferenceable(24) %24, i8 0, i64 24, i1 false)
  %26 = tail call i32 @MOZ_Z_inflateInit2_(ptr noundef nonnull %2, i32 noundef 31, ptr noundef nonnull @.str.6, i32 noundef 120) #12
  %.not = icmp eq i32 %26, 0
  br i1 %.not, label %30, label %27

27:                                               ; preds = %23
  %28 = load ptr, ptr %15, align 8, !tbaa !34
  tail call void @free(ptr noundef %28) #12
  %29 = load ptr, ptr %11, align 8, !tbaa !43
  tail call void @free(ptr noundef %29) #12
  store i32 0, ptr %3, align 8, !tbaa !27
  tail call void @MOZ_Z_gz_error(ptr noundef nonnull %0, i32 noundef -4, ptr noundef nonnull @.str.4) #12
  br label %66

30:                                               ; preds = %23, %1
  %31 = getelementptr inbounds nuw i8, ptr %0, i64 128
  %32 = load i32, ptr %31, align 8, !tbaa !24
  %33 = icmp ult i32 %32, 2
  br i1 %33, label %34, label %.thread

34:                                               ; preds = %30
  %35 = tail call fastcc i32 @gz_avail(ptr noundef %0)
  %36 = icmp eq i32 %35, -1
  br i1 %36, label %66, label %37

37:                                               ; preds = %34
  %38 = load i32, ptr %31, align 8, !tbaa !24
  switch i32 %38, label %.thread [
    i32 0, label %66
    i32 1, label %51
  ]

.thread:                                          ; preds = %37, %30
  %39 = phi i32 [ %32, %30 ], [ %38, %37 ]
  %40 = load ptr, ptr %2, align 8, !tbaa !45
  %41 = load i8, ptr %40, align 1, !tbaa !38
  %42 = icmp eq i8 %41, 31
  br i1 %42, label %43, label %51

43:                                               ; preds = %.thread
  %44 = getelementptr inbounds nuw i8, ptr %40, i64 1
  %45 = load i8, ptr %44, align 1, !tbaa !38
  %46 = icmp eq i8 %45, -117
  br i1 %46, label %47, label %51

47:                                               ; preds = %43
  %48 = tail call i32 @MOZ_Z_inflateReset(ptr noundef nonnull %2) #12
  %49 = getelementptr inbounds nuw i8, ptr %0, i64 68
  store i32 2, ptr %49, align 4, !tbaa !26
  %50 = getelementptr inbounds nuw i8, ptr %0, i64 64
  store i32 0, ptr %50, align 8, !tbaa !41
  br label %66

51:                                               ; preds = %37, %43, %.thread
  %52 = phi i32 [ %39, %43 ], [ %39, %.thread ], [ %38, %37 ]
  %53 = getelementptr inbounds nuw i8, ptr %0, i64 64
  %54 = load i32, ptr %53, align 8, !tbaa !41
  %55 = icmp eq i32 %54, 0
  br i1 %55, label %56, label %58

56:                                               ; preds = %51
  store i32 0, ptr %31, align 8, !tbaa !24
  %57 = getelementptr inbounds nuw i8, ptr %0, i64 80
  store i32 1, ptr %57, align 8, !tbaa !20
  store i32 0, ptr %0, align 8, !tbaa !17
  br label %66

58:                                               ; preds = %51
  %59 = getelementptr inbounds nuw i8, ptr %0, i64 56
  %60 = load ptr, ptr %59, align 8, !tbaa !34
  %61 = getelementptr inbounds nuw i8, ptr %0, i64 8
  store ptr %60, ptr %61, align 8, !tbaa !18
  %62 = load ptr, ptr %2, align 8, !tbaa !45
  %63 = zext i32 %52 to i64
  tail call void @llvm.memcpy.p0.p0.i64(ptr align 1 %60, ptr align 1 %62, i64 %63, i1 false)
  %64 = load i32, ptr %31, align 8, !tbaa !24
  store i32 %64, ptr %0, align 8, !tbaa !17
  store i32 0, ptr %31, align 8, !tbaa !24
  %65 = getelementptr inbounds nuw i8, ptr %0, i64 68
  store i32 1, ptr %65, align 4, !tbaa !26
  store i32 1, ptr %53, align 8, !tbaa !41
  br label %66

66:                                               ; preds = %37, %34, %58, %56, %47, %27, %22
  %.0 = phi i32 [ -1, %22 ], [ -1, %27 ], [ 0, %47 ], [ 0, %56 ], [ 0, %58 ], [ -1, %34 ], [ %38, %37 ]
  ret i32 %.0
}